; ModuleID = 'source-C-CXX/56/2015.c'
source_filename = "source-C-CXX/56/2015.c"
target datalayout = "e-m:e-p270:32:32-p271:32:32-p272:64:64-i64:64-f80:128-n8:16:32:64-S128"
target triple = "x86_64-pc-linux-gnu"

@.str = private unnamed_addr constant [3 x i8] c"%d\00", align 1
@.str.1 = private unnamed_addr constant [3 x i8] c"%s\00", align 1

; Function Attrs: nofree nounwind sspstrong uwtable
define dso_local void @main() local_unnamed_addr #0 {
  %1 = alloca i32, align 4
  %2 = alloca [50 x [50 x i8]], align 16
  %3 = bitcast i32* %1 to i8*
  call void @llvm.lifetime.start.p0i8(i64 4, i8* nonnull %3) #5
  %4 = getelementptr inbounds [50 x [50 x i8]], [50 x [50 x i8]]* %2, i64 0, i64 0, i64 0
  call void @llvm.lifetime.start.p0i8(i64 2500, i8* nonnull %4) #5
  %5 = call i32 (i8*, ...) @__isoc99_scanf(i8* getelementptr inbounds ([3 x i8], [3 x i8]* @.str, i64 0, i64 0), i32* nonnull %1)
  %6 = load i32, i32* %1, align 4, !tbaa !5
  %7 = icmp sgt i32 %6, 0
  br i1 %7, label %10, label %39

8:                                                ; preds = %26
  %9 = icmp sgt i32 %28, 0
  br i1 %9, label %31, label %39

10:                                               ; preds = %0, %26
  %11 = phi i64 [ %27, %26 ], [ 0, %0 ]
  %12 = getelementptr inbounds [50 x [50 x i8]], [50 x [50 x i8]]* %2, i64 0, i64 %11, i64 0
  %13 = call i32 (i8*, ...) @__isoc99_scanf(i8* getelementptr inbounds ([3 x i8], [3 x i8]* @.str.1, i64 0, i64 0), i8* nonnull %12)
  %14 = call i64 @strlen(i8* noundef nonnull %12) #6
  %15 = shl i64 %14, 32
  %16 = add i64 %15, -4294967296
  %17 = ashr exact i64 %16, 32
  %18 = getelementptr inbounds [50 x [50 x i8]], [50 x [50 x i8]]* %2, i64 0, i64 %11, i64 %17
  %19 = load i8, i8* %18, align 1, !tbaa !9
  switch i8 %19, label %26 [
    i8 114, label %21
    i8 121, label %21
    i8 103, label %20
  ]

20:                                               ; preds = %10
  br label %21

21:                                               ; preds = %10, %10, %20
  %22 = phi i64 [ -12884901888, %20 ], [ -8589934592, %10 ], [ -8589934592, %10 ]
  %23 = add i64 %15, %22
  %24 = ashr exact i64 %23, 32
  %25 = getelementptr inbounds [50 x [50 x i8]], [50 x [50 x i8]]* %2, i64 0, i64 %11, i64 %24
  store i8 0, i8* %25, align 1, !tbaa !9
  br label %26

26:                                               ; preds = %21, %10
  %27 = add nuw nsw i64 %11, 1
  %28 = load i32, i32* %1, align 4, !tbaa !5
  %29 = sext i32 %28 to i64
  %30 = icmp slt i64 %27, %29
  br i1 %30, label %10, label %8, !llvm.loop !10

31:                                               ; preds = %8, %31
  %32 = phi i64 [ %35, %31 ], [ 0, %8 ]
  %33 = getelementptr inbounds [50 x [50 x i8]], [50 x [50 x i8]]* %2, i64 0, i64 %32, i64 0
  %34 = call i32 @puts(i8* nonnull %33)
  %35 = add nuw nsw i64 %32, 1
  %36 = load i32, i32* %1, align 4, !tbaa !5
  %37 = sext i32 %36 to i64
  %38 = icmp slt i64 %35, %37
  br i1 %38, label %31, label %39, !llvm.loop !12

39:                                               ; preds = %31, %0, %8
  call void @llvm.lifetime.end.p0i8(i64 2500, i8* nonnull %4) #5
  call void @llvm.lifetime.end.p0i8(i64 4, i8* nonnull %3) #5
  ret void
}

; Function Attrs: argmemonly mustprogress nofree nosync nounwind willreturn
declare void @llvm.lifetime.start.p0i8(i64 immarg, i8* nocapture) #1

; Function Attrs: nofree nounwind
declare noundef i32 @__isoc99_scanf(i8* nocapture noundef readonly, ...) local_unnamed_addr #2

; Function Attrs: argmemonly mustprogress nofree nounwind readonly willreturn
declare i64 @strlen(i8* nocapture) local_unnamed_addr #3

; Function Attrs: argmemonly mustprogress nofree nosync nounwind willreturn
declare void @llvm.lifetime.end.p0i8(i64 immarg, i8* nocapture) #1

; Function Attrs: nofree nounwind
declare noundef i32 @puts(i8* nocapture noundef readonly) local_unnamed_addr #4


!llvm.module.flags = !{!0, !1, !2, !3}
!llvm.ident = !{!4}

!0 = !{i32 1, !"wchar_size", i32 4}
!1 = !{i32 7, !"PIC Level", i32 2}
!2 = !{i32 7, !"PIE Level", i32 2}
!3 = !{i32 7, !"uwtable", i32 1}
!4 = !{!"clang version 13.0.0"}
!5 = !{!6, !6, i64 0}
!6 = !{!"int", !7, i64 0}
!7 = !{!"omnipotent char", !8, i64 0}
!8 = !{!"Simple C/C++ TBAA"}
!9 = !{!7, !7, i64 0}
!10 = distinct !{!10, !11}
!11 = !{!"llvm.loop.mustprogress"}
!12 = distinct !{!12, !11}
